Certificate:
    Data:
        Version: 3 (0x2)
        Serial Number: 406165746933783954 (0x5a2fd9849eb5d92)
        Signature Algorithm: sha256WithRSAEncryption
        Issuer: C=in, ST=Karnataka, L=Bengaluru, O=CAIR, CN=CAIR Authority Certificate
        Validity
            Not Before: Jun 26 04:29:46 2025 GMT
            Not After : Jun 14 04:29:45 2035 GMT
        Subject: C=in, ST=Karnataka, L=Bengaluru, O=CAIR, CN=jenkins.isrd.cair.drdo
        Subject Public Key Info:
            Public Key Algorithm: rsaEncryption
                Public-Key: (4096 bit)
                Modulus:
                    00:eb:cf:ce:27:ac:d4:dd:96:dc:3a:e5:b1:35:ab:
                    7e:14:6f:b2:69:1f:55:13:36:42:89:01:8a:2b:d5:
                    36:94:c1:df:df:60:fd:b4:4f:0c:c8:4d:57:c1:14:
                    fe:3f:66:33:61:87:b7:43:79:28:fa:25:02:eb:b3:
                    74:93:7b:32:71:af:f5:d6:ef:72:15:d7:bd:db:c6:
                    c8:e1:b7:97:cc:79:23:2e:7b:9f:1c:26:16:5a:2f:
                    93:12:86:07:89:ae:67:ae:a1:7b:2f:ee:c0:ce:08:
                    06:2b:25:3c:5a:03:af:74:56:98:53:7a:b7:d7:71:
                    f3:bd:3e:76:b5:b9:08:df:b9:28:96:fd:18:92:fb:
                    7f:37:92:c9:f0:c1:84:8f:c8:61:dd:38:19:eb:7d:
                    9d:7f:b3:9e:68:b0:b6:e5:f4:23:a2:1d:4c:27:60:
                    cd:f5:72:cc:0e:2c:59:4e:86:b7:4b:4c:91:ce:a3:
                    4f:6f:00:a2:55:2b:5e:38:2d:18:3e:33:9c:0a:8a:
                    25:d9:33:01:c9:1d:0b:65:d6:c7:ce:1b:ac:f9:83:
                    f5:d6:3e:5a:34:6e:db:dc:1f:da:e3:eb:34:d0:9c:
                    45:30:7a:f4:50:9a:d0:6a:3a:0e:1e:d9:3a:2c:50:
                    65:1f:9a:94:b0:e5:75:ce:fd:dd:fd:6b:6b:87:bc:
                    4d:39:ca:f9:01:39:bf:22:23:f1:49:2b:15:36:50:
                    99:27:5a:3a:94:19:b9:a3:b7:4a:b9:c9:27:cf:83:
                    22:61:9e:3e:37:dc:64:30:7f:f5:e0:75:e6:6c:7a:
                    4a:a3:4f:c4:7c:5d:48:71:41:42:0c:7f:c8:cf:5d:
                    e3:ff:50:e0:ec:35:fe:af:c9:6f:12:6a:1b:d4:ad:
                    31:b9:7d:5b:37:23:ea:8d:f3:2a:c1:9a:95:97:65:
                    c4:f0:2d:cb:f6:70:a0:36:c5:60:71:39:68:54:80:
                    72:bc:7e:03:0d:fc:cc:8e:9c:24:8a:26:ac:07:7d:
                    b4:75:cd:c1:c3:4c:c4:bc:7c:64:7c:46:ea:d5:91:
                    fc:fb:75:03:13:8a:6d:45:ed:65:bb:e3:69:e8:d5:
                    88:3e:c4:d8:81:2d:6f:13:76:a4:5e:ce:f1:00:9f:
                    7f:db:0b:51:40:e3:4a:e3:53:27:64:b6:a3:b7:ce:
                    c2:4c:c5:19:23:3c:e2:d1:71:fa:9e:71:d3:79:e2:
                    97:41:1f:c6:c7:89:3a:68:42:7c:b2:7f:d9:79:f1:
                    5f:08:5c:17:a9:73:5f:50:da:ff:58:b6:95:0d:f0:
                    16:0d:25:5e:35:8e:17:15:0f:04:78:b5:29:2c:98:
                    6e:9b:e3:c3:c4:be:83:78:d5:d7:5f:09:08:53:49:
                    39:7f:e1
                Exponent: 65537 (0x10001)
        X509v3 extensions:
            X509v3 Extended Key Usage: 
                TLS Web Server Authentication, TLS Web Client Authentication
            X509v3 Subject Alternative Name: 
                DNS:jenkins.isrd.cair.drdo
            X509v3 Authority Key Identifier: 
                50:1B:DF:A3:0A:7B:54:B4:2D:E9:EE:C2:45:92:F7:A1:20:70:94:EE
            X509v3 Subject Key Identifier: 
                50:DC:7D:52:54:DD:FE:C1:73:87:B7:11:DC:A8:3F:D0:8D:C2:6B:57
            Netscape Comment: 
                OpenSSL Generated Certificate
            X509v3 Basic Constraints: 
                CA:FALSE
    Signature Algorithm: sha256WithRSAEncryption
    Signature Value:
        76:7d:c7:52:1e:0f:4e:bd:7d:1d:73:9f:0e:71:39:a1:f0:95:
        3d:27:2e:20:67:df:70:1e:5a:2d:a9:d8:72:8e:9a:07:17:50:
        b3:06:ff:62:ff:70:75:0a:f2:d5:a4:13:f1:6e:70:aa:71:8b:
        ed:0e:e5:4c:b1:80:76:f2:d0:43:e0:d0:85:60:33:4e:6c:3b:
        b7:ff:eb:90:d2:5b:f8:0d:47:9c:61:50:6b:49:d9:ad:6b:a5:
        a6:01:7b:55:3a:c9:76:c9:ff:08:b3:fb:1d:0b:3b:c9:dc:d4:
        2b:4a:5d:5f:75:a5:e5:06:f6:fe:24:66:11:37:84:7e:3e:2f:
        2e:33:0d:2b:12:8a:93:c2:20:1e:31:06:e6:ae:ca:37:ea:c9:
        4a:b0:ea:31:24:ac:e3:10:b1:9a:2d:54:9e:5a:8c:fc:2e:f3:
        68:70:63:d1:c2:41:8f:d6:13:a9:f7:fa:dd:1b:02:05:b6:5b:
        78:b4:dd:48:4a:06:e5:9b:52:39:56:71:99:d3:ce:d3:25:80:
        e2:8b:08:3a:45:57:3c:54:9e:f6:af:a7:ae:48:e4:55:4d:3f:
        98:72:da:46:d3:7f:3f:e2:dc:b7:83:49:5a:b6:f5:87:93:ab:
        0e:d5:11:60:cd:d8:a8:9d:bc:5f:d1:19:f5:06:ad:32:b9:0e:
        97:d6:42:ae:c6:c7:8e:a3:36:e5:bc:93:f9:49:9f:21:98:80:
        77:27:84:cf:80:34:ef:de:82:47:6d:f5:de:50:e9:1e:ef:4f:
        3f:de:8a:4d:7d:8f:52:c7:0d:e6:2e:ee:be:43:b1:8f:b1:8f:
        32:40:d1:53:0f:1a:94:70:6a:76:8e:4f:da:f4:b3:bf:cb:18:
        bb:44:b3:f4:39:11:da:59:e6:46:f7:34:5c:43:f7:8a:d6:5e:
        9e:57:db:25:6e:57:29:50:70:b5:43:f1:b7:c6:6d:01:73:aa:
        dc:cc:3a:29:c4:60:4c:74:bb:63:f0:87:28:1d:bb:a2:42:dc:
        db:c4:89:17:06:67:ec:64:6e:17:25:29:0c:fc:6c:1b:43:54:
        f8:b0:14:2c:dd:3d:6e:4c:70:16:be:24:30:1a:c8:f2:b0:c8:
        f1:07:81:0d:a4:b9:ce:2a:81:6f:b3:c3:7c:82:33:1b:3f:21:
        63:b3:7b:68:85:f7:a6:9d:6a:6e:31:26:b3:f3:fe:b5:72:67:
        92:cb:a9:d0:df:6c:77:7d:f9:6d:9a:46:dc:ee:f4:1c:09:2b:
        de:db:72:01:48:4b:42:f9:4f:1a:75:f8:79:20:5b:e2:de:32:
        6c:44:23:f3:44:fa:5a:38:3d:1a:0e:bf:4d:f7:bd:68:87:88:
        e8:f8:fd:9b:47:ef:f4:1d
-----BEGIN CERTIFICATE-----
MIIGDzCCA/egAwIBAgIIBaL9mEnrXZIwDQYJKoZIhvcNAQELBQAwaTELMAkGA1UE
BhMCaW4xEjAQBgNVBAgMCUthcm5hdGFrYTESMBAGA1UEBwwJQmVuZ2FsdXJ1MQ0w
CwYDVQQKDARDQUlSMSMwIQYDVQQDDBpDQUlSIEF1dGhvcml0eSBDZXJ0aWZpY2F0
ZTAeFw0yNTA2MjYwNDI5NDZaFw0zNTA2MTQwNDI5NDVaMGUxCzAJBgNVBAYTAmlu
MRIwEAYDVQQIDAlLYXJuYXRha2ExEjAQBgNVBAcMCUJlbmdhbHVydTENMAsGA1UE
CgwEQ0FJUjEfMB0GA1UEAwwWamVua2lucy5pc3JkLmNhaXIuZHJkbzCCAiIwDQYJ
KoZIhvcNAQEBBQADggIPADCCAgoCggIBAOvPzies1N2W3DrlsTWrfhRvsmkfVRM2
QokBiivVNpTB399g/bRPDMhNV8EU/j9mM2GHt0N5KPolAuuzdJN7MnGv9dbvchXX
vdvGyOG3l8x5Iy57nxwmFlovkxKGB4muZ66hey/uwM4IBislPFoDr3RWmFN6t9dx
870+drW5CN+5KJb9GJL7fzeSyfDBhI/IYd04Get9nX+znmiwtuX0I6IdTCdgzfVy
zA4sWU6Gt0tMkc6jT28AolUrXjgtGD4znAqKJdkzAckdC2XWx84brPmD9dY+WjRu
29wf2uPrNNCcRTB69FCa0Go6Dh7ZOixQZR+alLDldc793f1ra4e8TTnK+QE5vyIj
8UkrFTZQmSdaOpQZuaO3SrnJJ8+DImGePjfcZDB/9eB15mx6SqNPxHxdSHFBQgx/
yM9d4/9Q4Ow1/q/JbxJqG9StMbl9Wzcj6o3zKsGalZdlxPAty/ZwoDbFYHE5aFSA
crx+Aw38zI6cJIomrAd9tHXNwcNMxLx8ZHxG6tWR/Pt1AxOKbUXtZbvjaejViD7E
2IEtbxN2pF7O8QCff9sLUUDjSuNTJ2S2o7fOwkzFGSM84tFx+p5x03nil0EfxseJ
OmhCfLJ/2XnxXwhcF6lzX1Da/1i2lQ3wFg0lXjWOFxUPBHi1KSyYbpvjw8S+g3jV
118JCFNJOX/hAgMBAAGjgb4wgbswHQYDVR0lBBYwFAYIKwYBBQUHAwEGCCsGAQUF
BwMCMCEGA1UdEQQaMBiCFmplbmtpbnMuaXNyZC5jYWlyLmRyZG8wHwYDVR0jBBgw
FoAUUBvfowp7VLQt6e7CRZL3oSBwlO4wHQYDVR0OBBYEFFDcfVJU3f7Bc4e3Edyo
P9CNwmtXMCwGCWCGSAGG+EIBDQQfFh1PcGVuU1NMIEdlbmVyYXRlZCBDZXJ0aWZp
Y2F0ZTAJBgNVHRMEAjAAMA0GCSqGSIb3DQEBCwUAA4ICAQB2fcdSHg9OvX0dc58O
cTmh8JU9Jy4gZ99wHlotqdhyjpoHF1CzBv9i/3B1CvLVpBPxbnCqcYvtDuVMsYB2
8tBD4NCFYDNObDu3/+uQ0lv4DUecYVBrSdmta6WmAXtVOsl2yf8Is/sdCzvJ3NQr
Sl1fdaXlBvb+JGYRN4R+Pi8uMw0rEoqTwiAeMQbmrso36slKsOoxJKzjELGaLVSe
Woz8LvNocGPRwkGP1hOp9/rdGwIFtlt4tN1ISgblm1I5VnGZ087TJYDiiwg6RVc8
VJ72r6euSORVTT+YctpG038/4ty3g0latvWHk6sO1RFgzdionbxf0Rn1Bq0yuQ6X
1kKuxseOozblvJP5SZ8hmIB3J4TPgDTv3oJHbfXeUOke708/3opNfY9Sxw3mLu6+
Q7GPsY8yQNFTDxqUcGp2jk/a9LO/yxi7RLP0ORHaWeZG9zRcQ/eK1l6eV9slblcp
UHC1Q/G3xm0Bc6rczDopxGBMdLtj8IcoHbuiQtzbxIkXBmfsZG4XJSkM/GwbQ1T4
sBQs3T1uTHAWviQwGsjysMjxB4ENpLnOKoFvs8N8gjMbPyFjs3tohfemnWpuMSaz
8/61cmeSy6nQ32x3ffltmkbc7vQcCSve23IBSEtC+U8adfh5IFvi3jJsRCPzRPpa
OD0aDr9N971oh4jo+P2bR+/0HQ==
-----END CERTIFICATE-----
