Certificate:
    Data:
        Version: 3 (0x2)
        Serial Number: 4096 (0x1000)
        Signature Algorithm: sha256WithRSAEncryption
        Issuer: C=IN, ST=Karnataka, L=Bangalore, O=DRDO, OU=CAIR-ISRD, CN=DRDO Internal Certificate Authority
        Validity
            Not Before: May 27 14:38:55 2025 GMT
            Not After : May 25 14:38:55 2035 GMT
        Subject: C=IN, ST=Karnataka, O=DRDO, OU=CAIR-ISRD, CN=DRDO Internal Certificate Authority
        Subject Public Key Info:
            Public Key Algorithm: rsaEncryption
                Public-Key: (2048 bit)
                Modulus:
                    00:ac:14:7d:f1:99:e7:cf:60:36:61:78:d7:46:f1:
                    6f:52:f5:ad:ef:bd:14:75:10:d9:96:fb:e8:9d:10:
                    29:86:cc:55:11:ef:89:5b:df:5f:7e:34:6c:b4:31:
                    5e:9c:41:b2:6a:70:cf:3a:92:e9:7d:58:54:2c:fb:
                    4d:3a:05:fc:b3:7a:79:65:7c:e0:65:7a:e9:9e:f4:
                    d9:a6:ef:e9:2a:eb:6e:38:e7:83:e4:52:c5:2e:28:
                    50:de:c2:bb:78:95:a1:16:5e:c5:96:6f:aa:89:5b:
                    34:7d:76:32:08:ca:18:d8:fd:8a:43:5a:d4:b0:0d:
                    14:8c:fc:64:1e:40:09:06:a3:cc:20:97:14:93:9b:
                    5e:06:6e:2f:f4:5e:8e:97:e2:c8:2c:25:1b:b9:a6:
                    4d:fd:f8:7f:9f:00:bf:65:87:b7:1e:bf:93:c3:d4:
                    87:b6:5a:e4:07:aa:31:a1:2b:2a:2a:7a:4e:51:fd:
                    52:96:3d:6e:88:0a:da:e0:a7:4f:76:79:95:70:fb:
                    6f:e6:ce:0e:76:3e:3e:1c:ea:33:d5:44:d5:f8:cc:
                    0b:43:0c:db:ed:08:50:ed:d3:d5:d3:5e:fd:53:f5:
                    87:c5:da:a6:bb:ce:9f:9e:13:5d:94:d5:16:92:a7:
                    3c:69:d7:b1:9a:2d:d3:d0:e6:58:98:8f:44:15:06:
                    e7:e9
                Exponent: 65537 (0x10001)
        X509v3 extensions:
            X509v3 Basic Constraints: 
                CA:FALSE
            X509v3 Key Usage: 
                Digital Signature, Non Repudiation, Key Encipherment
            X509v3 Subject Alternative Name: 
                DNS:jenkins.isrd.cair.drdo, IP Address:192.168.3.2
            X509v3 Subject Key Identifier: 
                56:D1:A8:26:62:8B:64:A8:F8:7F:65:66:24:D3:63:01:B6:E8:46:82
            X509v3 Authority Key Identifier: 
                F4:53:D7:39:1A:CD:C1:38:68:99:3B:AA:94:F5:49:2C:2F:DE:7E:E7
    Signature Algorithm: sha256WithRSAEncryption
    Signature Value:
        5d:e6:78:f0:85:63:6f:45:46:aa:e4:e3:61:66:6e:d6:35:2c:
        87:a4:07:dc:58:b3:7d:32:78:4c:ea:70:75:0f:d4:03:e5:c1:
        6c:df:26:a9:4f:bf:d9:85:94:b1:53:fa:15:63:c2:32:53:3b:
        c9:85:fc:45:d3:3d:57:fe:b8:ae:66:18:21:5a:c5:da:c2:e3:
        f2:3b:84:c4:18:f2:a5:43:96:75:0a:a1:0d:74:7f:b8:39:17:
        69:10:aa:50:ec:5f:56:8d:f6:45:fe:31:72:5d:2d:59:bc:8b:
        eb:63:28:83:a3:7b:62:7b:9b:c9:0e:01:23:50:17:2b:9b:2a:
        1a:7a:86:2a:07:e5:cc:4f:2b:c5:d1:b5:6b:f6:8e:ca:e0:e3:
        ca:05:3f:f5:b4:94:fa:eb:c3:fa:7d:c5:30:bd:f4:10:93:89:
        fe:f1:28:33:65:0c:2f:7f:99:9e:f5:32:f7:50:7f:d1:59:d3:
        97:bc:00:08:f5:fd:6a:ff:3d:1c:37:3c:b7:8e:ab:02:8c:28:
        a4:ee:c7:73:a8:fe:aa:87:af:fa:a8:b4:0e:9b:ac:26:f0:b9:
        7d:66:1e:81:7e:9a:8e:2d:72:1f:9d:15:9a:81:50:b8:e3:a0:
        d6:6a:11:1e:26:eb:ee:0d:e4:8c:2e:cc:b1:86:33:46:a6:d7:
        ff:6b:4f:67:1d:2e:39:8a:37:7e:55:5a:a2:4e:41:21:7e:ab:
        52:dd:bb:bd:95:37:bb:84:83:b7:76:b9:ec:6f:c8:42:40:60:
        57:34:b7:59:47:9f:e1:65:14:bd:dc:df:43:99:3e:1d:f5:3d:
        f5:2b:98:06:f1:dd:af:87:33:14:ac:b2:02:de:c0:e1:1a:86:
        5a:75:89:2b:f5:c6:4e:f0:28:bf:84:61:09:a1:18:a0:ed:c4:
        6f:29:da:57:62:f6:f7:ab:bd:a3:d8:b2:b6:a7:0b:54:b5:74:
        bc:f3:28:48:9a:97:23:f6:c1:58:32:e8:70:63:2f:88:90:70:
        de:f0:f9:f2:78:f9:c8:6a:b5:29:86:2c:63:2d:2e:64:2b:77:
        42:02:1f:96:31:9c:77:21:34:2e:92:7b:ad:56:35:71:7d:d8:
        d4:99:f8:50:70:d9:89:ea:1d:d7:ae:ad:49:17:17:7d:57:8f:
        3b:f4:b9:54:a6:99:47:61:c6:62:5d:34:db:c7:bd:02:b2:77:
        71:27:bd:fc:52:7d:84:48:33:e4:5c:ac:31:90:f5:fd:3b:71:
        f2:3f:6b:78:11:c5:08:79:44:c7:45:91:38:5d:ac:35:ec:86:
        9b:f1:49:ed:42:95:5b:9f:92:ae:10:8d:90:e1:59:90:1c:4e:
        af:d3:9c:ed:6a:50:9b:b8
-----BEGIN CERTIFICATE-----
MIIE+jCCAuKgAwIBAgICEAAwDQYJKoZIhvcNAQELBQAwgYYxCzAJBgNVBAYTAklO
MRIwEAYDVQQIDAlLYXJuYXRha2ExEjAQBgNVBAcMCUJhbmdhbG9yZTENMAsGA1UE
CgwERFJETzESMBAGA1UECwwJQ0FJUi1JU1JEMSwwKgYDVQQDDCNEUkRPIEludGVy
bmFsIENlcnRpZmljYXRlIEF1dGhvcml0eTAeFw0yNTA1MjcxNDM4NTVaFw0zNTA1
MjUxNDM4NTVaMHIxCzAJBgNVBAYTAklOMRIwEAYDVQQIDAlLYXJuYXRha2ExDTAL
BgNVBAoMBERSRE8xEjAQBgNVBAsMCUNBSVItSVNSRDEsMCoGA1UEAwwjRFJETyBJ
bnRlcm5hbCBDZXJ0aWZpY2F0ZSBBdXRob3JpdHkwggEiMA0GCSqGSIb3DQEBAQUA
A4IBDwAwggEKAoIBAQCsFH3xmefPYDZheNdG8W9S9a3vvRR1ENmW++idECmGzFUR
74lb319+NGy0MV6cQbJqcM86kul9WFQs+006BfyzenllfOBleume9Nmm7+kq6244
54PkUsUuKFDewrt4laEWXsWWb6qJWzR9djIIyhjY/YpDWtSwDRSM/GQeQAkGo8wg
lxSTm14Gbi/0Xo6X4sgsJRu5pk39+H+fAL9lh7cev5PD1Ie2WuQHqjGhKyoqek5R
/VKWPW6ICtrgp092eZVw+2/mzg52Pj4c6jPVRNX4zAtDDNvtCFDt09XTXv1T9YfF
2qa7zp+eE12U1RaSpzxp17GaLdPQ5liYj0QVBufpAgMBAAGjgYQwgYEwCQYDVR0T
BAIwADALBgNVHQ8EBAMCBeAwJwYDVR0RBCAwHoIWamVua2lucy5pc3JkLmNhaXIu
ZHJkb4cEwKgDAjAdBgNVHQ4EFgQUVtGoJmKLZKj4f2VmJNNjAbboRoIwHwYDVR0j
BBgwFoAU9FPXORrNwThomTuqlPVJLC/efucwDQYJKoZIhvcNAQELBQADggIBAF3m
ePCFY29FRqrk42FmbtY1LIekB9xYs30yeEzqcHUP1APlwWzfJqlPv9mFlLFT+hVj
wjJTO8mF/EXTPVf+uK5mGCFaxdrC4/I7hMQY8qVDlnUKoQ10f7g5F2kQqlDsX1aN
9kX+MXJdLVm8i+tjKIOje2J7m8kOASNQFyubKhp6hioH5cxPK8XRtWv2jsrg48oF
P/W0lPrrw/p9xTC99BCTif7xKDNlDC9/mZ71MvdQf9FZ05e8AAj1/Wr/PRw3PLeO
qwKMKKTux3Oo/qqHr/qotA6brCbwuX1mHoF+mo4tch+dFZqBULjjoNZqER4m6+4N
5IwuzLGGM0am1/9rT2cdLjmKN35VWqJOQSF+q1Ldu72VN7uEg7d2uexvyEJAYFc0
t1lHn+FlFL3c30OZPh31PfUrmAbx3a+HMxSssgLewOEahlp1iSv1xk7wKL+EYQmh
GKDtxG8p2ldi9vervaPYsranC1S1dLzzKEialyP2wVgy6HBjL4iQcN7w+fJ4+chq
tSmGLGMtLmQrd0ICH5YxnHchNC6Se61WNXF92NSZ+FBw2YnqHdeurUkXF31Xjzv0
uVSmmUdhxmJdNNvHvQKyd3EnvfxSfYRIM+RcrDGQ9f07cfI/a3gRxQh5RMdFkThd
rDXshpvxSe1ClVufkq4QjZDhWZAcTq/TnO1qUJu4
-----END CERTIFICATE-----
