Certificate:
    Data:
        Version: 3 (0x2)
        Serial Number: 406165746933783953 (0x5a2fd9849eb5d91)
        Signature Algorithm: sha256WithRSAEncryption
        Issuer: C=in, ST=Karnataka, L=Bengaluru, O=CAIR, CN=CAIR Authority Certificate
        Validity
            Not Before: Jun 26 04:29:15 2025 GMT
            Not After : Jun 14 04:29:15 2035 GMT
        Subject: C=in, ST=Karnataka, L=Bengaluru, O=CAIR, CN=tuleap.isrd.cair.drdo
        Subject Public Key Info:
            Public Key Algorithm: rsaEncryption
                Public-Key: (4096 bit)
                Modulus:
                    00:c9:42:15:a6:83:ee:7e:1c:66:bd:8b:4e:80:4c:
                    93:d8:01:a7:9d:29:00:3a:8e:9d:48:7a:c5:f4:5c:
                    2e:15:7e:6d:e4:f0:c2:3e:fd:f3:62:9a:cc:60:f3:
                    f9:db:7e:f6:b1:83:9d:c1:19:5a:cc:bd:3a:f6:cb:
                    d2:76:5c:66:bb:df:e6:e9:01:f6:5e:c5:36:8d:3f:
                    8b:b7:fd:57:69:54:41:ad:6c:f4:6c:e5:7b:11:4b:
                    a8:5f:e5:3a:57:f2:76:cb:64:01:79:89:28:b5:cb:
                    34:bf:17:d0:5a:f9:a2:7c:b6:a7:4b:af:62:d8:5f:
                    45:21:3e:6d:58:ec:4e:54:b6:ed:3a:8f:9e:26:42:
                    83:51:8f:3b:ab:af:5d:98:10:66:eb:a0:bd:54:91:
                    ad:f1:c6:22:ff:82:35:9d:e7:06:b6:f8:cd:67:2d:
                    81:be:0b:18:0c:ef:99:d9:59:1d:5b:1e:b9:eb:3b:
                    26:39:84:85:db:67:09:ed:ce:c7:87:3c:ab:ac:de:
                    2a:5d:be:f5:b2:b5:52:9b:b4:c2:ef:3c:3b:89:60:
                    99:c9:77:34:d5:b5:ad:b1:b6:f5:9b:40:29:b7:dd:
                    c9:a4:3c:b4:98:d3:db:fd:23:0d:0e:e6:d1:dd:be:
                    74:9b:78:79:2f:ed:75:e7:da:cf:af:f9:cb:67:55:
                    b5:2b:04:10:ac:45:b1:ea:87:1b:8a:ca:60:4f:b2:
                    1d:89:0f:3b:c1:a2:d1:b5:2e:fe:bd:7f:05:3f:f9:
                    b0:30:1f:61:b6:13:1a:76:2c:39:2e:2b:28:48:be:
                    a6:d9:29:4d:f3:a5:d5:c0:6a:50:df:85:66:12:89:
                    e8:81:3d:c3:b4:ec:d5:f3:0c:5b:80:28:d6:9c:c7:
                    a8:83:6b:d2:35:70:b0:a1:7d:7e:26:9f:66:58:ac:
                    60:ec:2d:13:9d:e3:16:df:29:5a:be:f2:6f:83:2a:
                    84:32:c1:2f:dc:a3:c2:09:98:17:fd:95:a6:50:9f:
                    d4:06:00:96:11:cf:96:1d:49:41:43:0f:8a:51:46:
                    ea:9b:65:64:97:ad:9b:68:3a:62:ce:93:9a:71:80:
                    22:da:78:61:30:1e:13:45:8e:45:08:c6:f2:4c:53:
                    b9:9a:48:15:76:62:ba:60:d6:e6:09:4c:ed:b8:b6:
                    5f:b2:aa:39:53:30:c7:18:67:44:b5:c6:51:b2:04:
                    7f:89:0b:a4:41:f5:68:10:5c:db:b3:3b:ea:d0:2a:
                    54:50:bb:7a:e9:42:4e:a1:40:fd:77:9d:77:20:20:
                    8a:c7:7c:31:da:8e:14:21:e0:58:7b:29:ea:88:c2:
                    7c:3d:05:95:04:0a:c5:24:81:84:14:cc:86:67:e2:
                    40:0d:bb
                Exponent: 65537 (0x10001)
        X509v3 extensions:
            X509v3 Extended Key Usage: 
                TLS Web Server Authentication, TLS Web Client Authentication
            X509v3 Subject Alternative Name: 
                DNS:tuleap.isrd.cair.drdo
            X509v3 Authority Key Identifier: 
                50:1B:DF:A3:0A:7B:54:B4:2D:E9:EE:C2:45:92:F7:A1:20:70:94:EE
            X509v3 Subject Key Identifier: 
                CA:2D:41:37:1D:EC:06:16:24:58:C0:77:CD:D4:A8:B1:97:FB:05:8B
            Netscape Comment: 
                OpenSSL Generated Certificate
            X509v3 Basic Constraints: 
                CA:FALSE
    Signature Algorithm: sha256WithRSAEncryption
    Signature Value:
        4f:d9:69:3e:15:93:f9:d4:87:c3:1d:4f:9a:73:78:ed:b7:29:
        e9:b4:63:4f:fc:1f:fd:d5:83:39:14:f7:da:10:8f:18:bf:a7:
        8d:72:65:37:16:5d:28:89:2c:02:92:a2:d9:10:9c:fc:5e:1e:
        ed:71:cb:e7:62:60:1b:da:c5:c0:7f:22:a0:c0:0c:4c:70:45:
        23:3e:b7:a1:31:0b:a3:f3:8f:e5:03:3a:69:d4:a0:cc:cd:9e:
        34:96:4c:58:31:25:17:9a:fa:b6:8a:6e:f6:6e:16:bd:04:c8:
        b5:c5:ad:fe:a1:e1:d4:a3:50:99:78:16:94:82:5b:13:a7:7c:
        f2:69:8d:d2:76:42:a9:86:e3:ca:cf:85:28:8e:1d:f8:d1:4b:
        11:51:c6:9d:fa:61:17:14:1e:bf:09:7c:ab:cf:a4:22:6f:11:
        9b:68:8c:cb:cb:83:bd:da:a2:b6:cb:0a:b7:3c:ff:77:94:97:
        b0:e1:fb:f1:92:b4:7d:64:4f:61:86:48:33:eb:13:20:5e:35:
        97:9e:7e:fb:fa:8a:c5:fc:e6:35:34:17:6c:f9:2e:4d:b6:78:
        40:06:39:77:32:fe:75:a9:84:b4:f5:5b:fb:b7:ed:18:d4:30:
        07:14:ac:7b:98:ed:3b:f4:a7:5c:61:03:72:bc:30:e7:29:97:
        7f:a1:08:f0:78:76:cf:9c:ab:f1:bd:91:f0:ad:76:68:9e:54:
        e8:df:21:cd:c1:e0:b2:d5:b6:01:44:b4:ac:75:2e:7e:e9:47:
        9f:7f:eb:49:15:92:67:a9:1a:c5:ae:93:1f:e0:14:00:13:c7:
        ea:4c:f1:cb:06:aa:e0:b4:a3:ac:2c:45:06:2a:3c:b9:88:d8:
        54:96:37:75:a8:62:46:cf:04:c3:75:ef:76:d0:76:d3:c3:b4:
        2c:27:9a:ec:30:96:3b:a2:b1:88:f5:71:cf:64:06:19:51:ae:
        32:ff:62:19:49:d4:db:fa:04:22:cc:a9:d8:6a:12:94:80:1a:
        9c:6d:f0:88:77:39:be:5e:95:bf:59:1a:65:e3:b6:3b:c3:61:
        6f:5d:71:2b:72:3f:b7:0e:c5:95:08:f2:0e:c0:24:8f:49:b0:
        49:b1:24:3a:3d:db:e7:1b:98:75:84:71:ec:91:a4:35:0c:f8:
        86:9c:62:d0:d8:1a:c8:18:f5:5e:c8:1d:e2:9e:d1:a5:6e:d0:
        40:81:3a:26:04:8e:d0:7d:35:ac:88:ba:e5:4b:f4:4a:04:ac:
        9c:41:3d:e6:b7:19:a3:a8:3d:58:17:81:c2:ca:c0:df:44:ff:
        ab:e5:ad:1f:20:bd:82:56:59:da:37:af:ed:1f:f4:54:a8:8b:
        f7:f9:b8:6d:5d:31:c7:e1
-----BEGIN CERTIFICATE-----
MIIGDTCCA/WgAwIBAgIIBaL9mEnrXZEwDQYJKoZIhvcNAQELBQAwaTELMAkGA1UE
BhMCaW4xEjAQBgNVBAgMCUthcm5hdGFrYTESMBAGA1UEBwwJQmVuZ2FsdXJ1MQ0w
CwYDVQQKDARDQUlSMSMwIQYDVQQDDBpDQUlSIEF1dGhvcml0eSBDZXJ0aWZpY2F0
ZTAeFw0yNTA2MjYwNDI5MTVaFw0zNTA2MTQwNDI5MTVaMGQxCzAJBgNVBAYTAmlu
MRIwEAYDVQQIDAlLYXJuYXRha2ExEjAQBgNVBAcMCUJlbmdhbHVydTENMAsGA1UE
CgwEQ0FJUjEeMBwGA1UEAwwVdHVsZWFwLmlzcmQuY2Fpci5kcmRvMIICIjANBgkq
hkiG9w0BAQEFAAOCAg8AMIICCgKCAgEAyUIVpoPufhxmvYtOgEyT2AGnnSkAOo6d
SHrF9FwuFX5t5PDCPv3zYprMYPP52372sYOdwRlazL069svSdlxmu9/m6QH2XsU2
jT+Lt/1XaVRBrWz0bOV7EUuoX+U6V/J2y2QBeYkotcs0vxfQWvmifLanS69i2F9F
IT5tWOxOVLbtOo+eJkKDUY87q69dmBBm66C9VJGt8cYi/4I1necGtvjNZy2BvgsY
DO+Z2VkdWx656zsmOYSF22cJ7c7HhzyrrN4qXb71srVSm7TC7zw7iWCZyXc01bWt
sbb1m0Apt93JpDy0mNPb/SMNDubR3b50m3h5L+1159rPr/nLZ1W1KwQQrEWx6ocb
ispgT7IdiQ87waLRtS7+vX8FP/mwMB9hthMadiw5LisoSL6m2SlN86XVwGpQ34Vm
EonogT3DtOzV8wxbgCjWnMeog2vSNXCwoX1+Jp9mWKxg7C0TneMW3ylavvJvgyqE
MsEv3KPCCZgX/ZWmUJ/UBgCWEc+WHUlBQw+KUUbqm2Vkl62baDpizpOacYAi2nhh
MB4TRY5FCMbyTFO5mkgVdmK6YNbmCUztuLZfsqo5UzDHGGdEtcZRsgR/iQukQfVo
EFzbszvq0CpUULt66UJOoUD9d513ICCKx3wx2o4UIeBYeynqiMJ8PQWVBArFJIGE
FMyGZ+JADbsCAwEAAaOBvTCBujAdBgNVHSUEFjAUBggrBgEFBQcDAQYIKwYBBQUH
AwIwIAYDVR0RBBkwF4IVdHVsZWFwLmlzcmQuY2Fpci5kcmRvMB8GA1UdIwQYMBaA
FFAb36MKe1S0LenuwkWS96EgcJTuMB0GA1UdDgQWBBTKLUE3HewGFiRYwHfN1Kix
l/sFizAsBglghkgBhvhCAQ0EHxYdT3BlblNTTCBHZW5lcmF0ZWQgQ2VydGlmaWNh
dGUwCQYDVR0TBAIwADANBgkqhkiG9w0BAQsFAAOCAgEAT9lpPhWT+dSHwx1PmnN4
7bcp6bRjT/wf/dWDORT32hCPGL+njXJlNxZdKIksApKi2RCc/F4e7XHL52JgG9rF
wH8ioMAMTHBFIz63oTELo/OP5QM6adSgzM2eNJZMWDElF5r6topu9m4WvQTItcWt
/qHh1KNQmXgWlIJbE6d88mmN0nZCqYbjys+FKI4d+NFLEVHGnfphFxQevwl8q8+k
Im8Rm2iMy8uDvdqitssKtzz/d5SXsOH78ZK0fWRPYYZIM+sTIF41l55++/qKxfzm
NTQXbPkuTbZ4QAY5dzL+damEtPVb+7ftGNQwBxSse5jtO/SnXGEDcrww5ymXf6EI
8Hh2z5yr8b2R8K12aJ5U6N8hzcHgstW2AUS0rHUufulHn3/rSRWSZ6kaxa6TH+AU
ABPH6kzxywaq4LSjrCxFBio8uYjYVJY3dahiRs8Ew3XvdtB208O0LCea7DCWO6Kx
iPVxz2QGGVGuMv9iGUnU2/oEIsyp2GoSlIAanG3wiHc5vl6Vv1kaZeO2O8Nhb11x
K3I/tw7FlQjyDsAkj0mwSbEkOj3b5xuYdYRx7JGkNQz4hpxi0NgayBj1Xsgd4p7R
pW7QQIE6JgSO0H01rIi65Uv0SgSsnEE95rcZo6g9WBeBwsrA30T/q+WtHyC9glZZ
2jev7R/0VKiL9/m4bV0xx+E=
-----END CERTIFICATE-----
